target datalayout = "e-m:e-p270:32:32-p271:32:32-p272:64:64-i64:64-i128:128-f80:128-n8:16:32:64-S128"
target triple = "x86_64-pc-linux-gnu"

%class.LogTagSet = type { ptr, i64, [5 x i32], [4 x i8], %class.LogOutputList, %class.LogDecorators, ptr }
%class.LogOutputList = type <{ [6 x ptr], i32, [4 x i8] }>
%class.LogDecorators = type { i32 }
%class.LogTargetHandle = type { i32, ptr }
%class.G1CardSetConfiguration = type { i32, i32, i32, i32, i32, i32, i32, i32, i32, i32, i32, ptr }
%class.GCLogPreciousHandle = type { %class.LogTargetHandle }
%class.LogTargetImpl = type { i8 }
%class.G1CardSetContainer = type { i64 }
%class.G1CardSetArray = type <{ %class.G1CardSetContainer, i32, i32, [1 x i16], [6 x i8] }>
%class.G1CardSetBitMap = type { %class.G1CardSetContainer, i64, [1 x i64] }
%class.anon.9 = type { i8 }
%class.anon.10 = type { i8 }

@_ZN16LogTagSetMappingILN6LogTag4typeE49ELS1_130ELS1_0ELS1_0ELS1_0ELS1_0EE7_tagsetE = linkonce_odr hidden global %class.LogTagSet zeroinitializer, comdat, align 8

; Function Attrs: mustprogress nounwind uwtable
define linkonce_odr hidden noundef i64 @_ZN6BitMap23raw_to_words_align_downEm(i64 noundef %0) #1 comdat align 2 {
  %2 = alloca i64, align 8
  store i64 %0, ptr %2, align 8
  %3 = load i64, ptr %2, align 8
  %4 = lshr i64 %3, 6
  ret i64 %4
}

; Function Attrs: mustprogress nounwind uwtable
define linkonce_odr hidden noundef i64 @_ZN6BitMap21raw_to_words_align_upEm(i64 noundef %0) #1 comdat align 2 {
  %2 = alloca i64, align 8
  store i64 %0, ptr %2, align 8
  %3 = load i64, ptr %2, align 8
  %4 = add i64 %3, 63
  %5 = call noundef i64 @_ZN6BitMap23raw_to_words_align_downEm(i64 noundef %4)
  ret i64 %5
}

; Function Attrs: mustprogress nounwind uwtable
define linkonce_odr hidden void @_ZN6BitMap11verify_sizeEm(i64 noundef %0) #1 comdat align 2 {
  %2 = alloca i64, align 8
  store i64 %0, ptr %2, align 8
  ret void
}

; Function Attrs: mustprogress nounwind uwtable
define linkonce_odr hidden noundef i64 @_ZZN15G1CardSetBitMap20header_size_in_bytesEvENKUlvE_clEv(ptr noundef nonnull align 1 dereferenceable(1) %0) #1 comdat align 2 {
  %2 = alloca ptr, align 8
  %3 = alloca [24 x i8], align 16
  %4 = alloca ptr, align 8
  %5 = alloca ptr, align 8
  store ptr %0, ptr %2, align 8
  %6 = getelementptr inbounds [24 x i8], ptr %3, i64 0, i64 0
  store ptr %6, ptr %4, align 8
  %7 = load ptr, ptr %4, align 8
  %8 = getelementptr inbounds %class.G1CardSetBitMap, ptr %7, i32 0, i32 2
  store ptr %8, ptr %5, align 8
  %9 = load ptr, ptr %5, align 8
  %10 = getelementptr inbounds [24 x i8], ptr %3, i64 0, i64 0
  %11 = ptrtoint ptr %9 to i64
  %12 = ptrtoint ptr %10 to i64
  %13 = sub i64 %11, %12
  ret i64 %13
}

; Function Attrs: mustprogress nounwind uwtable
define linkonce_odr hidden noundef i64 @_ZZN14G1CardSetArray20header_size_in_bytesEvENKUlvE_clEv(ptr noundef nonnull align 1 dereferenceable(1) %0) #1 comdat align 2 {
  %2 = alloca ptr, align 8
  %3 = alloca [24 x i8], align 16
  %4 = alloca ptr, align 8
  %5 = alloca ptr, align 8
  store ptr %0, ptr %2, align 8
  %6 = getelementptr inbounds [24 x i8], ptr %3, i64 0, i64 0
  store ptr %6, ptr %4, align 8
  %7 = load ptr, ptr %4, align 8
  %8 = getelementptr inbounds %class.G1CardSetArray, ptr %7, i32 0, i32 3
  store ptr %8, ptr %5, align 8
  %9 = load ptr, ptr %5, align 8
  %10 = getelementptr inbounds [24 x i8], ptr %3, i64 0, i64 0
  %11 = ptrtoint ptr %9 to i64
  %12 = ptrtoint ptr %10 to i64
  %13 = sub i64 %11, %12
  ret i64 %13
}

; Function Attrs: mustprogress nounwind uwtable
define linkonce_odr hidden noundef i32 @_ZN18G1CardSetInlinePtr23max_cards_in_inline_ptrEj(i32 noundef %0) #1 comdat align 2 {
  %2 = alloca i32, align 4
  store i32 %0, ptr %2, align 4
  %3 = load i32, ptr %2, align 4
  %4 = udiv i32 59, %3
  ret i32 %4
}

; Function Attrs: mustprogress nounwind uwtable
define linkonce_odr hidden noundef nonnull align 8 dereferenceable(112) ptr @_ZN16LogTagSetMappingILN6LogTag4typeE49ELS1_130ELS1_0ELS1_0ELS1_0ELS1_0EE6tagsetEv() #1 comdat align 2 {
  ret ptr @_ZN16LogTagSetMappingILN6LogTag4typeE49ELS1_130ELS1_0ELS1_0ELS1_0ELS1_0EE7_tagsetE
}

; Function Attrs: mustprogress nounwind uwtable
define linkonce_odr hidden noundef i64 @_ZN6BitMap18calc_size_in_wordsEm(i64 noundef %0) #1 comdat align 2 {
  %2 = alloca i64, align 8
  store i64 %0, ptr %2, align 8
  %3 = load i64, ptr %2, align 8
  call void @_ZN6BitMap11verify_sizeEm(i64 noundef %3)
  %4 = load i64, ptr %2, align 8
  %5 = call noundef i64 @_ZN6BitMap21raw_to_words_align_upEm(i64 noundef %4)
  ret i64 %5
}

; Function Attrs: mustprogress nounwind uwtable
define linkonce_odr hidden noundef i64 @_ZN15G1CardSetBitMap20header_size_in_bytesEv() #1 comdat align 2 {
  %1 = alloca %class.anon.10, align 1
  %2 = call noundef i64 @_ZZN15G1CardSetBitMap20header_size_in_bytesEvENKUlvE_clEv(ptr noundef nonnull align 1 dereferenceable(1) %1)
  ret i64 %2
}

; Function Attrs: mustprogress nounwind uwtable
define linkonce_odr hidden noundef i64 @_ZN14G1CardSetArray20header_size_in_bytesEv() #1 comdat align 2 {
  %1 = alloca %class.anon.9, align 1
  %2 = call noundef i64 @_ZZN14G1CardSetArray20header_size_in_bytesEvENKUlvE_clEv(ptr noundef nonnull align 1 dereferenceable(1) %1)
  ret i64 %2
}

; Function Attrs: mustprogress nounwind uwtable
define hidden noundef i32 @_ZN22G1CardSetConfiguration23max_cards_in_inline_ptrEj(i32 noundef %0) #1 align 2 {
  %2 = alloca i32, align 4
  store i32 %0, ptr %2, align 4
  %3 = load i32, ptr %2, align 4
  %4 = call noundef i32 @_ZN18G1CardSetInlinePtr23max_cards_in_inline_ptrEj(i32 noundef %3)
  ret i32 %4
}

; Function Attrs: mustprogress nounwind uwtable
define linkonce_odr hidden void @_ZN15LogTargetHandleC2ILN8LogLevel4typeE2ELN6LogTag4typeE49ELS4_130ELS4_0ELS4_0ELS4_0ELS4_0EEERK13LogTargetImplIXT_EXT0_EXT1_EXT2_EXT3_EXT4_EXT5_EE(ptr noundef nonnull align 8 dereferenceable(16) %0, ptr noundef nonnull align 1 dereferenceable(1) %1) unnamed_addr #1 comdat align 2 {
  %3 = alloca ptr, align 8
  %4 = alloca ptr, align 8
  store ptr %0, ptr %3, align 8
  store ptr %1, ptr %4, align 8
  %5 = load ptr, ptr %3, align 8
  %6 = getelementptr inbounds %class.LogTargetHandle, ptr %5, i32 0, i32 0
  store i32 2, ptr %6, align 8
  %7 = getelementptr inbounds %class.LogTargetHandle, ptr %5, i32 0, i32 1
  %8 = call noundef nonnull align 8 dereferenceable(112) ptr @_ZN16LogTagSetMappingILN6LogTag4typeE49ELS1_130ELS1_0ELS1_0ELS1_0ELS1_0EE6tagsetEv()
  store ptr %8, ptr %7, align 8
  ret void
}

; Function Attrs: mustprogress nounwind uwtable
define linkonce_odr hidden void @_ZN13LogTargetImplILN8LogLevel4typeE2ELN6LogTag4typeE49ELS3_130ELS3_0ELS3_0ELS3_0ELS3_0EEC2Ev(ptr noundef nonnull align 1 dereferenceable(1) %0) unnamed_addr #1 comdat align 2 {
  %2 = alloca ptr, align 8
  store ptr %0, ptr %2, align 8
  ret void
}

; Function Attrs: mustprogress nounwind uwtable
define linkonce_odr hidden noundef i32 @_ZNK22G1CardSetConfiguration19max_cards_in_regionEv(ptr noundef nonnull align 8 dereferenceable(56) %0) #1 comdat align 2 {
  %2 = alloca ptr, align 8
  store ptr %0, ptr %2, align 8
  %3 = load ptr, ptr %2, align 8
  %4 = getelementptr inbounds %class.G1CardSetConfiguration, ptr %3, i32 0, i32 3
  %5 = load i32, ptr %4, align 4
  ret i32 %5
}

; Function Attrs: mustprogress nounwind uwtable
define linkonce_odr hidden noundef i32 @_ZNK22G1CardSetConfiguration33log2_card_regions_per_heap_regionEv(ptr noundef nonnull align 8 dereferenceable(56) %0) #1 comdat align 2 {
  %2 = alloca ptr, align 8
  store ptr %0, ptr %2, align 8
  %3 = load ptr, ptr %2, align 8
  %4 = getelementptr inbounds %class.G1CardSetConfiguration, ptr %3, i32 0, i32 9
  %5 = load i32, ptr %4, align 4
  ret i32 %5
}

; Function Attrs: mustprogress nounwind uwtable
define linkonce_odr hidden noundef i32 @_ZNK22G1CardSetConfiguration30cards_in_howl_bitmap_thresholdEv(ptr noundef nonnull align 8 dereferenceable(56) %0) #1 comdat align 2 {
  %2 = alloca ptr, align 8
  store ptr %0, ptr %2, align 8
  %3 = load ptr, ptr %2, align 8
  %4 = getelementptr inbounds %class.G1CardSetConfiguration, ptr %3, i32 0, i32 6
  %5 = load i32, ptr %4, align 8
  ret i32 %5
}

; Function Attrs: mustprogress nounwind uwtable
define linkonce_odr hidden noundef i64 @_ZN15G1CardSetBitMap13size_in_bytesEm(i64 noundef %0) #1 comdat align 2 {
  %2 = alloca i64, align 8
  store i64 %0, ptr %2, align 8
  %3 = call noundef i64 @_ZN15G1CardSetBitMap20header_size_in_bytesEv()
  %4 = load i64, ptr %2, align 8
  %5 = call noundef i64 @_ZN6BitMap18calc_size_in_wordsEm(i64 noundef %4)
  %6 = mul i64 %5, 8
  %7 = add i64 %3, %6
  ret i64 %7
}

; Function Attrs: mustprogress nounwind uwtable
define linkonce_odr hidden noundef i32 @_ZNK22G1CardSetConfiguration24max_cards_in_howl_bitmapEv(ptr noundef nonnull align 8 dereferenceable(56) %0) #1 comdat align 2 {
  %2 = alloca ptr, align 8
  store ptr %0, ptr %2, align 8
  %3 = load ptr, ptr %2, align 8
  %4 = getelementptr inbounds %class.G1CardSetConfiguration, ptr %3, i32 0, i32 5
  %5 = load i32, ptr %4, align 4
  ret i32 %5
}

; Function Attrs: mustprogress nounwind uwtable
define linkonce_odr hidden noundef i32 @_ZNK22G1CardSetConfiguration23cards_in_howl_thresholdEv(ptr noundef nonnull align 8 dereferenceable(56) %0) #1 comdat align 2 {
  %2 = alloca ptr, align 8
  store ptr %0, ptr %2, align 8
  %3 = load ptr, ptr %2, align 8
  %4 = getelementptr inbounds %class.G1CardSetConfiguration, ptr %3, i32 0, i32 4
  %5 = load i32, ptr %4, align 8
  ret i32 %5
}

; Function Attrs: mustprogress nounwind uwtable
define linkonce_odr hidden noundef i32 @_ZNK22G1CardSetConfiguration19num_buckets_in_howlEv(ptr noundef nonnull align 8 dereferenceable(56) %0) #1 comdat align 2 {
  %2 = alloca ptr, align 8
  store ptr %0, ptr %2, align 8
  %3 = load ptr, ptr %2, align 8
  %4 = getelementptr inbounds %class.G1CardSetConfiguration, ptr %3, i32 0, i32 2
  %5 = load i32, ptr %4, align 8
  ret i32 %5
}

; Function Attrs: mustprogress nounwind uwtable
define linkonce_odr hidden noundef i64 @_ZN14G1CardSetArray13size_in_bytesEm(i64 noundef %0) #1 comdat align 2 {
  %2 = alloca i64, align 8
  store i64 %0, ptr %2, align 8
  %3 = call noundef i64 @_ZN14G1CardSetArray20header_size_in_bytesEv()
  %4 = load i64, ptr %2, align 8
  %5 = mul i64 2, %4
  %6 = add i64 %3, %5
  ret i64 %6
}

; Function Attrs: mustprogress nounwind uwtable
define linkonce_odr hidden noundef i32 @_ZNK22G1CardSetConfiguration18max_cards_in_arrayEv(ptr noundef nonnull align 8 dereferenceable(56) %0) #1 comdat align 2 {
  %2 = alloca ptr, align 8
  store ptr %0, ptr %2, align 8
  %3 = load ptr, ptr %2, align 8
  %4 = getelementptr inbounds %class.G1CardSetConfiguration, ptr %3, i32 0, i32 1
  %5 = load i32, ptr %4, align 4
  ret i32 %5
}

; Function Attrs: mustprogress nounwind uwtable
define hidden noundef i32 @_ZNK22G1CardSetConfiguration23max_cards_in_inline_ptrEv(ptr noundef nonnull align 8 dereferenceable(56) %0) #1 align 2 {
  %2 = alloca ptr, align 8
  store ptr %0, ptr %2, align 8
  %3 = load ptr, ptr %2, align 8
  %4 = getelementptr inbounds %class.G1CardSetConfiguration, ptr %3, i32 0, i32 0
  %5 = load i32, ptr %4, align 8
  %6 = call noundef i32 @_ZN22G1CardSetConfiguration23max_cards_in_inline_ptrEj(i32 noundef %5)
  ret i32 %6
}

; Function Attrs: mustprogress nounwind uwtable
define linkonce_odr hidden void @_ZN19GCLogPreciousHandleC2E15LogTargetHandle(ptr noundef nonnull align 8 dereferenceable(16) %0, i32 %1, ptr %2) unnamed_addr #1 comdat align 2 {
  %4 = alloca %class.LogTargetHandle, align 8
  %5 = alloca ptr, align 8
  %6 = getelementptr inbounds { i32, ptr }, ptr %4, i32 0, i32 0
  store i32 %1, ptr %6, align 8
  %7 = getelementptr inbounds { i32, ptr }, ptr %4, i32 0, i32 1
  store ptr %2, ptr %7, align 8
  store ptr %0, ptr %5, align 8
  %8 = load ptr, ptr %5, align 8
  %9 = getelementptr inbounds %class.GCLogPreciousHandle, ptr %8, i32 0, i32 0
  call void @llvm.memcpy.p0.p0.i64(ptr align 8 %9, ptr align 8 %4, i64 16, i1 false)
  ret void
}

; Function Attrs: mustprogress nounwind uwtable
define linkonce_odr hidden { i32, ptr } @_ZN15LogTargetHandle6createILN8LogLevel4typeE2ELN6LogTag4typeE49ELS4_130ELS4_0ELS4_0ELS4_0ELS4_0EEES_v() #1 comdat align 2 {
  %1 = alloca %class.LogTargetHandle, align 8
  %2 = alloca %class.LogTargetImpl, align 1
  call void @_ZN13LogTargetImplILN8LogLevel4typeE2ELN6LogTag4typeE49ELS3_130ELS3_0ELS3_0ELS3_0ELS3_0EEC2Ev(ptr noundef nonnull align 1 dereferenceable(1) %2)
  call void @_ZN15LogTargetHandleC2ILN8LogLevel4typeE2ELN6LogTag4typeE49ELS4_130ELS4_0ELS4_0ELS4_0ELS4_0EEERK13LogTargetImplIXT_EXT0_EXT1_EXT2_EXT3_EXT4_EXT5_EE(ptr noundef nonnull align 8 dereferenceable(16) %1, ptr noundef nonnull align 1 dereferenceable(1) %2)
  %3 = load { i32, ptr }, ptr %1, align 8
  ret { i32, ptr } %3
}

; Function Attrs: mustprogress nounwind uwtable
define hidden void @_ZN22G1CardSetConfiguration17log_configurationEv(ptr noundef nonnull align 8 dereferenceable(56) %0) #1 align 2 {
  %2 = alloca ptr, align 8
  %3 = alloca %class.GCLogPreciousHandle, align 8
  %4 = alloca %class.LogTargetHandle, align 8
  store ptr %0, ptr %2, align 8
  %5 = load ptr, ptr %2, align 8
  %6 = call { i32, ptr } @_ZN15LogTargetHandle6createILN8LogLevel4typeE2ELN6LogTag4typeE49ELS4_130ELS4_0ELS4_0ELS4_0ELS4_0EEES_v()
  %7 = getelementptr inbounds { i32, ptr }, ptr %4, i32 0, i32 0
  %8 = extractvalue { i32, ptr } %6, 0
  store i32 %8, ptr %7, align 8
  %9 = getelementptr inbounds { i32, ptr }, ptr %4, i32 0, i32 1
  %10 = extractvalue { i32, ptr } %6, 1
  store ptr %10, ptr %9, align 8
  %11 = getelementptr inbounds { i32, ptr }, ptr %4, i32 0, i32 0
  %12 = load i32, ptr %11, align 8
  %13 = getelementptr inbounds { i32, ptr }, ptr %4, i32 0, i32 1
  %14 = load ptr, ptr %13, align 8
  call void @_ZN19GCLogPreciousHandleC2E15LogTargetHandle(ptr noundef nonnull align 8 dereferenceable(16) %3, i32 %12, ptr %14)
  %15 = call noundef i32 @_ZNK22G1CardSetConfiguration23max_cards_in_inline_ptrEv(ptr noundef nonnull align 8 dereferenceable(56) %5)
  %16 = call noundef i32 @_ZNK22G1CardSetConfiguration18max_cards_in_arrayEv(ptr noundef nonnull align 8 dereferenceable(56) %5)
  %17 = call noundef i32 @_ZNK22G1CardSetConfiguration18max_cards_in_arrayEv(ptr noundef nonnull align 8 dereferenceable(56) %5)
  %18 = zext i32 %17 to i64
  %19 = call noundef i64 @_ZN14G1CardSetArray13size_in_bytesEm(i64 noundef %18)
  %20 = call noundef i32 @_ZNK22G1CardSetConfiguration19num_buckets_in_howlEv(ptr noundef nonnull align 8 dereferenceable(56) %5)
  %21 = call noundef i32 @_ZNK22G1CardSetConfiguration23cards_in_howl_thresholdEv(ptr noundef nonnull align 8 dereferenceable(56) %5)
  %22 = call noundef i32 @_ZNK22G1CardSetConfiguration24max_cards_in_howl_bitmapEv(ptr noundef nonnull align 8 dereferenceable(56) %5)
  %23 = call noundef i32 @_ZNK22G1CardSetConfiguration24max_cards_in_howl_bitmapEv(ptr noundef nonnull align 8 dereferenceable(56) %5)
  %24 = zext i32 %23 to i64
  %25 = call noundef i64 @_ZN15G1CardSetBitMap13size_in_bytesEm(i64 noundef %24)
  %26 = call noundef i32 @_ZNK22G1CardSetConfiguration30cards_in_howl_bitmap_thresholdEv(ptr noundef nonnull align 8 dereferenceable(56) %5)
  %27 = call noundef i32 @_ZNK22G1CardSetConfiguration33log2_card_regions_per_heap_regionEv(ptr noundef nonnull align 8 dereferenceable(56) %5)
  %28 = shl i32 1, %27
  %29 = call noundef i32 @_ZNK22G1CardSetConfiguration19max_cards_in_regionEv(ptr noundef nonnull align 8 dereferenceable(56) %5)
  call void (ptr, ptr, ...) @_ZN19GCLogPreciousHandle5writeEPKcz(ptr noundef nonnull align 8 dereferenceable(16) %3, ptr noundef @.str, i32 noundef %15, i64 noundef 8, i32 noundef %16, i64 noundef %19, i32 noundef %20, i32 noundef %21, i32 noundef %22, i64 noundef %25, i32 noundef %26, i32 noundef %28, i32 noundef %29)
  ret void
}