; Function Attrs: mustprogress nounwind uwtable
define hidden void @_ZN22G1CardSetConfiguration17log_configurationEv(ptr nocapture noundef nonnull readonly align 8 dereferenceable(56) %0) local_unnamed_addr #1 align 2 {
  %2 = alloca %class.GCLogPreciousHandle, align 8
  store i32 2, ptr %2, align 8
  %.sroa.21.0..sroa_idx.i = getelementptr inbounds i8, ptr %2, i64 8
  store ptr @_ZN16LogTagSetMappingILN6LogTag4typeE49ELS1_130ELS1_0ELS1_0ELS1_0ELS1_0EE7_tagsetE, ptr %.sroa.21.0..sroa_idx.i, align 8
  %3 = load i32, ptr %0, align 8
  %4 = udiv i32 59, %3
  %5 = getelementptr inbounds i8, ptr %0, i64 4
  %6 = load i32, ptr %5, align 4
  %7 = zext i32 %6 to i64
  %8 = shl nuw nsw i64 %7, 1
  %9 = add nuw nsw i64 %8, 16
  %10 = getelementptr inbounds i8, ptr %0, i64 8
  %11 = load i32, ptr %10, align 8
  %12 = getelementptr inbounds i8, ptr %0, i64 16
  %13 = load i32, ptr %12, align 8
  %14 = getelementptr inbounds i8, ptr %0, i64 20
  %15 = load i32, ptr %14, align 4
  %16 = zext i32 %15 to i64
  %17 = add nuw nsw i64 %16, 63
  %18 = lshr i64 %17, 3
  %19 = and i64 %18, 1073741816
  %20 = add nuw nsw i64 %19, 16
  %21 = getelementptr inbounds i8, ptr %0, i64 24
  %22 = load i32, ptr %21, align 8
  %23 = getelementptr inbounds i8, ptr %0, i64 36
  %24 = load i32, ptr %23, align 4
  %25 = shl nuw i32 1, %24
  %26 = getelementptr inbounds i8, ptr %0, i64 12
  %27 = load i32, ptr %26, align 4
  call void (ptr, ptr, ...) @_ZN19GCLogPreciousHandle5writeEPKcz(ptr noundef nonnull align 8 dereferenceable(16) %2, ptr noundef nonnull @.str, i32 noundef %4, i64 noundef 8, i32 noundef %6, i64 noundef %9, i32 noundef %11, i32 noundef %13, i32 noundef %15, i64 noundef %20, i32 noundef %22, i32 noundef %25, i32 noundef %27)
  ret void
}